; Function Attrs: mustprogress uwtable
define noundef range(i32 -22, 1) i32 @_Z13fdt_parse_isaPKviPPKc(ptr noundef %0, i32 noundef %1, ptr noundef writeonly captures(none) %2) local_unnamed_addr #3 {
  %4 = alloca i32, align 4
  %5 = alloca i32, align 4
  call void @llvm.lifetime.start.p0(i64 4, ptr nonnull %5) #22
  call void @llvm.lifetime.start.p0(i64 4, ptr nonnull %4) #22
  %6 = icmp eq ptr %0, null
  %7 = icmp slt i32 %1, 0
  %or.cond.i = or i1 %6, %7
  br i1 %or.cond.i, label %_ZL14check_cpu_nodePKvi.exit.thread, label %8

8:                                                ; preds = %3
  %9 = call ptr @fdt_getprop(ptr noundef nonnull %0, i32 noundef %1, ptr noundef nonnull @.str.50, ptr noundef nonnull %4)
  %10 = icmp ne ptr %9, null
  %11 = load i32, ptr %4, align 4
  %12 = icmp ne i32 %11, 0
  %or.cond3.i = select i1 %10, i1 %12, i1 false
  br i1 %or.cond3.i, label %sub_0.i, label %_ZL14check_cpu_nodePKvi.exit.thread

sub_0.i:                                          ; preds = %8
  %13 = load i8, ptr %9, align 1
  %.not12.i = icmp eq i8 %13, 99
  br i1 %.not12.i, label %sub_1.i, label %_ZL14check_cpu_nodePKvi.exit.thread

sub_1.i:                                          ; preds = %sub_0.i
  %14 = getelementptr inbounds nuw i8, ptr %9, i64 1
  %15 = load i8, ptr %14, align 1
  %.not13.i = icmp eq i8 %15, 112
  br i1 %.not13.i, label %sub_2.i, label %_ZL14check_cpu_nodePKvi.exit.thread

sub_2.i:                                          ; preds = %sub_1.i
  %16 = getelementptr inbounds nuw i8, ptr %9, i64 2
  %17 = load i8, ptr %16, align 1
  %18 = icmp eq i8 %17, 117
  br i1 %18, label %19, label %_ZL14check_cpu_nodePKvi.exit.thread

_ZL14check_cpu_nodePKvi.exit.thread:              ; preds = %3, %8, %sub_0.i, %sub_1.i, %sub_2.i
  call void @llvm.lifetime.end.p0(i64 4, ptr nonnull %4) #22
  br label %25

19:                                               ; preds = %sub_2.i
  call void @llvm.lifetime.end.p0(i64 4, ptr nonnull %4) #22
  %20 = call ptr @fdt_getprop(ptr noundef nonnull %0, i32 noundef %1, ptr noundef nonnull @.str.36, ptr noundef nonnull %5)
  %21 = icmp ne ptr %20, null
  %22 = load i32, ptr %5, align 4
  %23 = icmp ne i32 %22, 0
  %or.cond = select i1 %21, i1 %23, i1 false
  br i1 %or.cond, label %24, label %25

24:                                               ; preds = %19
  store ptr %20, ptr %2, align 8, !tbaa !107
  br label %25

25:                                               ; preds = %_ZL14check_cpu_nodePKvi.exit.thread, %19, %24
  %.0 = phi i32 [ 0, %24 ], [ -22, %19 ], [ -22, %_ZL14check_cpu_nodePKvi.exit.thread ]
  call void @llvm.lifetime.end.p0(i64 4, ptr nonnull %5) #22
  ret i32 %.0
}